target datalayout = "e-m:e-p270:32:32-p271:32:32-p272:64:64-i64:64-i128:128-f80:128-n8:16:32:64-S128"
target triple = "x86_64-unknown-linux-gnu"

%"class.boost::detail::shared_count" = type { ptr }
%"class.boost::shared_ptr.20" = type { ptr, %"class.boost::detail::shared_count" }

@.str.7 = private unnamed_addr constant [8 x i8] c"px != 0\00", align 1
@.str.8 = private unnamed_addr constant [102 x i8] c"generated/home/dtcxzyw/WorkSpace/SDK/vcpkg/installed/x64-linux/include/boost/smart_ptr/shared_ptr.hpp\00", align 1
@__PRETTY_FUNCTION__._ZNK5boost10shared_ptrIN8QuantLib12SmileSectionEEptEv = private unnamed_addr constant [141 x i8] c"typename boost::detail::sp_member_access<T>::type boost::shared_ptr<QuantLib::SmileSection>::operator->() const [T = QuantLib::SmileSection]\00", align 1

; Function Attrs: inlinehint mustprogress uwtable
define linkonce_odr noundef double @_ZNK8QuantLib12SmileSection8varianceEd(ptr noundef nonnull align 8 dereferenceable(72) %this, double noundef %strike) #8 comdat align 2 {
entry:
  %this.addr = alloca ptr, align 8
  %strike.addr = alloca double, align 8
  store ptr %this, ptr %this.addr, align 8, !tbaa !3
  store double %strike, ptr %strike.addr, align 8, !tbaa !25
  %this1 = load ptr, ptr %this.addr, align 8
  %0 = load double, ptr %strike.addr, align 8, !tbaa !25
  %vtable = load ptr, ptr %this1, align 8, !tbaa !21
  %vfn = getelementptr inbounds ptr, ptr %vtable, i64 17
  %1 = load ptr, ptr %vfn, align 8
  %call = call noundef double %1(ptr noundef nonnull align 8 dereferenceable(72) %this1, double noundef %0)
  ret double %call
}

; Function Attrs: mustprogress uwtable
define linkonce_odr noundef ptr @_ZNK5boost10shared_ptrIN8QuantLib12SmileSectionEEptEv(ptr noundef nonnull align 8 dereferenceable(16) %this) #7 comdat align 2 {
entry:
  %this.addr = alloca ptr, align 8
  store ptr %this, ptr %this.addr, align 8, !tbaa !3
  %this1 = load ptr, ptr %this.addr, align 8
  %px = getelementptr inbounds nuw %"class.boost::shared_ptr.20", ptr %this1, i32 0, i32 0
  %0 = load ptr, ptr %px, align 8, !tbaa !27
  %cmp = icmp ne ptr %0, null
  %lnot = xor i1 %cmp, true
  %lnot2 = xor i1 %lnot, true
  %conv = zext i1 %lnot2 to i64
  %expval = call i64 @llvm.expect.i64(i64 %conv, i64 1)
  %tobool = icmp ne i64 %expval, 0
  br i1 %tobool, label %cond.true, label %cond.false

cond.true:                                        ; preds = %entry
  br label %cond.end

cond.false:                                       ; preds = %entry
  call void @_ZN5boost16assertion_failedEPKcS1_S1_l(ptr noundef @.str.7, ptr noundef @__PRETTY_FUNCTION__._ZNK5boost10shared_ptrIN8QuantLib12SmileSectionEEptEv, ptr noundef @.str.8, i64 noundef 784)
  br label %cond.end

cond.end:                                         ; preds = %cond.false, %cond.true
  %px3 = getelementptr inbounds nuw %"class.boost::shared_ptr.20", ptr %this1, i32 0, i32 0
  %1 = load ptr, ptr %px3, align 8, !tbaa !27
  ret ptr %1
}

; Function Attrs: mustprogress uwtable
define noundef double @_ZNK8QuantLib15BlackVolSurface15atmVarianceImplEd(ptr noundef nonnull align 8 dereferenceable(68) %this, double noundef %t) unnamed_addr #7 align 2 personality ptr @__gxx_personality_v0 {
entry:
  %this.addr = alloca ptr, align 8
  %t.addr = alloca double, align 8
  %s = alloca ptr, align 8
  %ref.tmp = alloca %"class.boost::shared_ptr.20", align 8
  %exn.slot = alloca ptr, align 8
  %ehselector.slot = alloca i32, align 4
  store ptr %this, ptr %this.addr, align 8, !tbaa !3
  store double %t, ptr %t.addr, align 8, !tbaa !25
  %this1 = load ptr, ptr %this.addr, align 8
  call void @llvm.lifetime.start.p0(i64 8, ptr %s) #18
  call void @llvm.lifetime.start.p0(i64 16, ptr %ref.tmp) #18
  %0 = load double, ptr %t.addr, align 8, !tbaa !25
  %vtable = load ptr, ptr %this1, align 8, !tbaa !21
  %vfn = getelementptr inbounds ptr, ptr %vtable, i64 15
  %1 = load ptr, ptr %vfn, align 8
  call void %1(ptr dead_on_unwind writable sret(%"class.boost::shared_ptr.20") align 8 %ref.tmp, ptr noundef nonnull align 8 dereferenceable(68) %this1, double noundef %0)
  store ptr %ref.tmp, ptr %s, align 8, !tbaa !3
  %2 = load ptr, ptr %s, align 8, !tbaa !3
  %call = invoke noundef ptr @_ZNK5boost10shared_ptrIN8QuantLib12SmileSectionEEptEv(ptr noundef nonnull align 8 dereferenceable(16) %2)
          to label %invoke.cont unwind label %lpad

invoke.cont:                                      ; preds = %entry
  %3 = load ptr, ptr %s, align 8, !tbaa !3
  %call3 = invoke noundef ptr @_ZNK5boost10shared_ptrIN8QuantLib12SmileSectionEEptEv(ptr noundef nonnull align 8 dereferenceable(16) %3)
          to label %invoke.cont2 unwind label %lpad

invoke.cont2:                                     ; preds = %invoke.cont
  %vtable4 = load ptr, ptr %call3, align 8, !tbaa !21
  %vfn5 = getelementptr inbounds ptr, ptr %vtable4, i64 5
  %4 = load ptr, ptr %vfn5, align 8
  %call7 = invoke noundef double %4(ptr noundef nonnull align 8 dereferenceable(72) %call3)
          to label %invoke.cont6 unwind label %lpad

invoke.cont6:                                     ; preds = %invoke.cont2
  %call9 = invoke noundef double @_ZNK8QuantLib12SmileSection8varianceEd(ptr noundef nonnull align 8 dereferenceable(72) %call, double noundef %call7)
          to label %invoke.cont8 unwind label %lpad

invoke.cont8:                                     ; preds = %invoke.cont6
  call void @_ZN5boost10shared_ptrIN8QuantLib12SmileSectionEED2Ev(ptr noundef nonnull align 8 dereferenceable(16) %ref.tmp) #18
  call void @llvm.lifetime.end.p0(i64 16, ptr %ref.tmp) #18
  call void @llvm.lifetime.end.p0(i64 8, ptr %s) #18
  ret double %call9

lpad:                                             ; preds = %invoke.cont6, %invoke.cont2, %invoke.cont, %entry
  %5 = landingpad { ptr, i32 }
          cleanup
  %6 = extractvalue { ptr, i32 } %5, 0
  store ptr %6, ptr %exn.slot, align 8
  %7 = extractvalue { ptr, i32 } %5, 1
  store i32 %7, ptr %ehselector.slot, align 4
  call void @_ZN5boost10shared_ptrIN8QuantLib12SmileSectionEED2Ev(ptr noundef nonnull align 8 dereferenceable(16) %ref.tmp) #18
  call void @llvm.lifetime.end.p0(i64 16, ptr %ref.tmp) #18
  call void @llvm.lifetime.end.p0(i64 8, ptr %s) #18
  br label %eh.resume

eh.resume:                                        ; preds = %lpad
  %exn = load ptr, ptr %exn.slot, align 8
  %sel = load i32, ptr %ehselector.slot, align 4
  %lpad.val = insertvalue { ptr, i32 } poison, ptr %exn, 0
  %lpad.val10 = insertvalue { ptr, i32 } %lpad.val, i32 %sel, 1
  resume { ptr, i32 } %lpad.val10
}